
app.elf:     file format elf32-i386


Disassembly of section .text:

00008c00 <start>:
    8c00:	bf 20 03 00 00       	mov    $0x320,%edi
    8c05:	b4 0c                	mov    $0xc,%ah
    8c07:	b0 48                	mov    $0x48,%al
    8c09:	65 66 89 07          	mov    %ax,%gs:(%edi)
    8c0d:	bf 22 03 00 00       	mov    $0x322,%edi
    8c12:	b4 0c                	mov    $0xc,%ah
    8c14:	b0 65                	mov    $0x65,%al
    8c16:	65 66 89 07          	mov    %ax,%gs:(%edi)
    8c1a:	bf 24 03 00 00       	mov    $0x324,%edi
    8c1f:	b4 0c                	mov    $0xc,%ah
    8c21:	b0 6c                	mov    $0x6c,%al
    8c23:	65 66 89 07          	mov    %ax,%gs:(%edi)
    8c27:	bf 26 03 00 00       	mov    $0x326,%edi
    8c2c:	b4 0c                	mov    $0xc,%ah
    8c2e:	b0 6c                	mov    $0x6c,%al
    8c30:	65 66 89 07          	mov    %ax,%gs:(%edi)
    8c34:	bf 28 03 00 00       	mov    $0x328,%edi
    8c39:	b4 0c                	mov    $0xc,%ah
    8c3b:	b0 6f                	mov    $0x6f,%al
    8c3d:	65 66 89 07          	mov    %ax,%gs:(%edi)
    8c41:	bf 2a 03 00 00       	mov    $0x32a,%edi
    8c46:	b4 0c                	mov    $0xc,%ah
    8c48:	b0 20                	mov    $0x20,%al
    8c4a:	65 66 89 07          	mov    %ax,%gs:(%edi)
    8c4e:	bf 2c 03 00 00       	mov    $0x32c,%edi
    8c53:	b4 0c                	mov    $0xc,%ah
    8c55:	b0 57                	mov    $0x57,%al
    8c57:	65 66 89 07          	mov    %ax,%gs:(%edi)
    8c5b:	bf 2e 03 00 00       	mov    $0x32e,%edi
    8c60:	b4 0c                	mov    $0xc,%ah
    8c62:	b0 6f                	mov    $0x6f,%al
    8c64:	65 66 89 07          	mov    %ax,%gs:(%edi)
    8c68:	bf 30 03 00 00       	mov    $0x330,%edi
    8c6d:	b4 0c                	mov    $0xc,%ah
    8c6f:	b0 72                	mov    $0x72,%al
    8c71:	65 66 89 07          	mov    %ax,%gs:(%edi)
    8c75:	bf 32 03 00 00       	mov    $0x332,%edi
    8c7a:	b4 0c                	mov    $0xc,%ah
    8c7c:	b0 6c                	mov    $0x6c,%al
    8c7e:	65 66 89 07          	mov    %ax,%gs:(%edi)
    8c82:	bf 34 03 00 00       	mov    $0x334,%edi
    8c87:	b4 0c                	mov    $0xc,%ah
    8c89:	b0 64                	mov    $0x64,%al
    8c8b:	65 66 89 07          	mov    %ax,%gs:(%edi)
    8c8f:	bf 36 03 00 00       	mov    $0x336,%edi
    8c94:	b4 0c                	mov    $0xc,%ah
    8c96:	b0 21                	mov    $0x21,%al
    8c98:	65 66 89 07          	mov    %ax,%gs:(%edi)

00008c9c <loop>:
    8c9c:	eb fe                	jmp    8c9c <loop>
